(dp0
S'train_acc'
p1
(lp2
cnumpy.core.multiarray
scalar
p3
(cnumpy
dtype
p4
(S'f4'
p5
I0
I1
tp6
Rp7
(I3
S'<'
p8
NNNI-1
I-1
I0
tp9
bS'Wn4?'
p10
tp11
Rp12
ag3
(g7
S'\xaa7H?'
p13
tp14
Rp15
ag3
(g7
S'\xe8}N?'
p16
tp17
Rp18
ag3
(g7
S'\xda#T?'
p19
tp20
Rp21
ag3
(g7
S'VCV?'
p22
tp23
Rp24
ag3
(g7
S'[\x92X?'
p25
tp26
Rp27
ag3
(g7
S'\x9cJX?'
p28
tp29
Rp30
ag3
(g7
S'4\x1dW?'
p31
tp32
Rp33
ag3
(g7
S'\xf3cY?'
p34
tp35
Rp36
ag3
(g7
S'-]Y?'
p37
tp38
Rp39
ag3
(g7
S'\xbfL[?'
p40
tp41
Rp42
ag3
(g7
S'\x8d\x81Z?'
p43
tp44
Rp45
ag3
(g7
S'\xba\x90Z?'
p46
tp47
Rp48
ag3
(g7
S'\xef\x83[?'
p49
tp50
Rp51
ag3
(g7
S'5\xd4Z?'
p52
tp53
Rp54
ag3
(g7
S'\xd8\xfb\\?'
p55
tp56
Rp57
ag3
(g7
S'\xb8\xfb[?'
p58
tp59
Rp60
ag3
(g7
S'\x07\x9f[?'
p61
tp62
Rp63
ag3
(g7
S'\xf0\xa9[?'
p64
tp65
Rp66
ag3
(g7
S'\xef:\\?'
p67
tp68
Rp69
ag3
(g7
S'\x91\xcf\\?'
p70
tp71
Rp72
ag3
(g7
S'\xc6\x9e[?'
p73
tp74
Rp75
ag3
(g7
S'\xce9\\?'
p76
tp77
Rp78
ag3
(g7
S'\xdc\xb6]?'
p79
tp80
Rp81
ag3
(g7
S'\xa9X^?'
p82
tp83
Rp84
ag3
(g7
S'\xae\xcb]?'
p85
tp86
Rp87
ag3
(g7
S'\x8f\xa8^?'
p88
tp89
Rp90
ag3
(g7
S'\xe8V^?'
p91
tp92
Rp93
ag3
(g7
S'\x99\xd8\\?'
p94
tp95
Rp96
ag3
(g7
S"'\r^?"
p97
tp98
Rp99
ag3
(g7
S'\xb1a^?'
p100
tp101
Rp102
ag3
(g7
S'\x94@]?'
p103
tp104
Rp105
ag3
(g7
S'9\xd8\\?'
p106
tp107
Rp108
ag3
(g7
S'\xcc\xed]?'
p109
tp110
Rp111
ag3
(g7
S'\xc6\xe7[?'
p112
tp113
Rp114
ag3
(g7
S'I\x0f^?'
p115
tp116
Rp117
ag3
(g7
S'\xbdo]?'
p118
tp119
Rp120
ag3
(g7
S'B\x99^?'
p121
tp122
Rp123
ag3
(g7
S'E\xc2[?'
p124
tp125
Rp126
ag3
(g7
S'\xe4-_?'
p127
tp128
Rp129
ag3
(g7
S'y!_?'
p130
tp131
Rp132
ag3
(g7
S'\xe8\xe8_?'
p133
tp134
Rp135
ag3
(g7
S'\xf4d_?'
p136
tp137
Rp138
ag3
(g7
S'\x81\x98^?'
p139
tp140
Rp141
ag3
(g7
S'\xc8\xa0]?'
p142
tp143
Rp144
ag3
(g7
S'1b\\?'
p145
tp146
Rp147
ag3
(g7
S'\xd4\xd2^?'
p148
tp149
Rp150
ag3
(g7
S'm\xa5^?'
p151
tp152
Rp153
ag3
(g7
S'^\xdd^?'
p154
tp155
Rp156
ag3
(g7
S'\xde\xdd_?'
p157
tp158
Rp159
asS'test_acc'
p160
(lp161
g3
(g7
S'dr4?'
p162
tp163
Rp164
ag3
(g7
S'(-H?'
p165
tp166
Rp167
ag3
(g7
S'q7N?'
p168
tp169
Rp170
ag3
(g7
S'\xc0\xb6S?'
p171
tp172
Rp173
ag3
(g7
S'a\x93U?'
p174
tp175
Rp176
ag3
(g7
S'Q\xcaW?'
p177
tp178
Rp179
ag3
(g7
S'\x82oW?'
p180
tp181
Rp182
ag3
(g7
S"\xe3'V?"
p183
tp184
Rp185
ag3
(g7
S'w\x87X?'
p186
tp187
Rp188
ag3
(g7
S'\x9b\x1eX?'
p189
tp190
Rp191
ag3
(g7
S'\x9ekZ?'
p192
tp193
Rp194
ag3
(g7
S'k\x9fY?'
p195
tp196
Rp197
ag3
(g7
S'>\xfdY?'
p198
tp199
Rp200
ag3
(g7
S':\x8bZ?'
p201
tp202
Rp203
ag3
(g7
S'4\xf2Y?'
p204
tp205
Rp206
ag3
(g7
S'!&\\?'
p207
tp208
Rp209
ag3
(g7
S'9\x1c[?'
p210
tp211
Rp212
ag3
(g7
S'\xf9\xd2Z?'
p213
tp214
Rp215
ag3
(g7
S"'\x08[?"
p216
tp217
Rp218
ag3
(g7
S'\x1e\x90[?'
p219
tp220
Rp221
ag3
(g7
S'\x88\t\\?'
p222
tp223
Rp224
ag3
(g7
S'\x07\xe3Z?'
p225
tp226
Rp227
ag3
(g7
S'[C[?'
p228
tp229
Rp230
ag3
(g7
S'\xdd\xfc\\?'
p231
tp232
Rp233
ag3
(g7
S'\xa3L]?'
p234
tp235
Rp236
ag3
(g7
S'\xf1\x13]?'
p237
tp238
Rp239
ag3
(g7
S'\xa2\xdd]?'
p240
tp241
Rp242
ag3
(g7
S'k\x9f]?'
p243
tp244
Rp245
ag3
(g7
S'\x0c\x0e\\?'
p246
tp247
Rp248
ag3
(g7
S'#M]?'
p249
tp250
Rp251
ag3
(g7
S'\x90\xc9]?'
p252
tp253
Rp254
ag3
(g7
S'IS\\?'
p255
tp256
Rp257
ag3
(g7
S'\xfa\xf8[?'
p258
tp259
Rp260
ag3
(g7
S'\xf8\x1b]?'
p261
tp262
Rp263
ag3
(g7
S'\xaa\x0b[?'
p264
tp265
Rp266
ag3
(g7
S'\x99A]?'
p267
tp268
Rp269
ag3
(g7
S'\xe7u\\?'
p270
tp271
Rp272
ag3
(g7
S'\x0b\xc3]?'
p273
tp274
Rp275
ag3
(g7
S'L2[?'
p276
tp277
Rp278
ag3
(g7
S'\xfaA^?'
p279
tp280
Rp281
ag3
(g7
S'\xe2&^?'
p282
tp283
Rp284
ag3
(g7
S'\xa9\n_?'
p285
tp286
Rp287
ag3
(g7
S'\xc2\x94^?'
p288
tp289
Rp290
ag3
(g7
S'M|]?'
p291
tp292
Rp293
ag3
(g7
S'$\xbb\\?'
p294
tp295
Rp296
ag3
(g7
S'\x81n[?'
p297
tp298
Rp299
ag3
(g7
S'/\xec]?'
p300
tp301
Rp302
ag3
(g7
S'\xf0\xa4]?'
p303
tp304
Rp305
ag3
(g7
S'H\t^?'
p306
tp307
Rp308
ag3
(g7
S'\xe2\xb8^?'
p309
tp310
Rp311
asS'test_loss'
p312
(lp313
g3
(g7
S'\xca \x9a?'
p314
tp315
Rp316
ag3
(g7
S'\xeemi?'
p317
tp318
Rp319
ag3
(g7
S'\x02{K?'
p320
tp321
Rp322
ag3
(g7
S'O\xb25?'
p323
tp324
Rp325
ag3
(g7
S'\x02R*?'
p326
tp327
Rp328
ag3
(g7
S'T\x97!?'
p329
tp330
Rp331
ag3
(g7
S'\xb6& ?'
p332
tp333
Rp334
ag3
(g7
S'\xb2\xfc"?'
p335
tp336
Rp337
ag3
(g7
S'\xdeB\x1b?'
p338
tp339
Rp340
ag3
(g7
S'\xd6c\x1a?'
p341
tp342
Rp343
ag3
(g7
S'*\x1f\x13?'
p344
tp345
Rp346
ag3
(g7
S'Pf\x14?'
p347
tp348
Rp349
ag3
(g7
S'\x14\xc5\x13?'
p350
tp351
Rp352
ag3
(g7
S'\xaf[\x11?'
p353
tp354
Rp355
ag3
(g7
S'\xf6{\x13?'
p356
tp357
Rp358
ag3
(g7
S'^\xd8\x0c?'
p359
tp360
Rp361
ag3
(g7
S'vs\x0f?'
p362
tp363
Rp364
ag3
(g7
S'\xaa\xe6\x10?'
p365
tp366
Rp367
ag3
(g7
S'\xaby\x0f?'
p368
tp369
Rp370
ag3
(g7
S'\x00^\r?'
p371
tp372
Rp373
ag3
(g7
S'NF\x0b?'
p374
tp375
Rp376
ag3
(g7
S'\xb0\xb9\x0f?'
p377
tp378
Rp379
ag3
(g7
S'\\T\r?'
p380
tp381
Rp382
ag3
(g7
S'\t\x07\t?'
p383
tp384
Rp385
ag3
(g7
S'\x17\x06\x07?'
p386
tp387
Rp388
ag3
(g7
S'V\xfc\x07?'
p389
tp390
Rp391
ag3
(g7
S'\x0b\xd2\x05?'
p392
tp393
Rp394
ag3
(g7
S'k\xc3\x06?'
p395
tp396
Rp397
ag3
(g7
S'\xca\xaa\t?'
p398
tp399
Rp400
ag3
(g7
S'\xd2\xd1\x06?'
p401
tp402
Rp403
ag3
(g7
S'\xfa\xd4\x05?'
p404
tp405
Rp406
ag3
(g7
S'\x8c\xfd\x08?'
p407
tp408
Rp409
ag3
(g7
S'\xf9\xf0\t?'
p410
tp411
Rp412
ag3
(g7
S'\x9at\x06?'
p413
tp414
Rp415
ag3
(g7
S'#\xcd\x0c?'
p416
tp417
Rp418
ag3
(g7
S'V\x01\x07?'
p419
tp420
Rp421
ag3
(g7
S'\xac!\t?'
p422
tp423
Rp424
ag3
(g7
S'\xe2\x7f\x05?'
p425
tp426
Rp427
ag3
(g7
S'2@\x08?'
p428
tp429
Rp430
ag3
(g7
S'\xa0w\x03?'
p431
tp432
Rp433
ag3
(g7
S'\xc21\x04?'
p434
tp435
Rp436
ag3
(g7
S'xD\x01?'
p437
tp438
Rp439
ag3
(g7
S'$\xc1\x02?'
p440
tp441
Rp442
ag3
(g7
S':\x1a\x05?'
p443
tp444
Rp445
ag3
(g7
S'uk\x07?'
p446
tp447
Rp448
ag3
(g7
S'\xccM\x0b?'
p449
tp450
Rp451
ag3
(g7
S'\xa3\xdc\x03?'
p452
tp453
Rp454
ag3
(g7
S'\xea\xcc\x04?'
p455
tp456
Rp457
ag3
(g7
S',B\x04?'
p458
tp459
Rp460
ag3
(g7
S'Z\x08\x02?'
p461
tp462
Rp463
asS'train_loss'
p464
(lp465
g3
(g7
S'B\xef\x99?'
p466
tp467
Rp468
ag3
(g7
S'L6h?'
p469
tp470
Rp471
ag3
(g7
S'c\xe5I?'
p472
tp473
Rp474
ag3
(g7
S'\xe0b4?'
p475
tp476
Rp477
ag3
(g7
S'\xf0\xa6(?'
p478
tp479
Rp480
ag3
(g7
S'\x8b\xaf\x1f?'
p481
tp482
Rp483
ag3
(g7
S'P\x12\x1e?'
p484
tp485
Rp486
ag3
(g7
S'\x8c\xcd ?'
p487
tp488
Rp489
ag3
(g7
S'\xb4&\x19?'
p490
tp491
Rp492
ag3
(g7
S'\x88\xf7\x17?'
p493
tp494
Rp495
ag3
(g7
S'\x1b\xfe\x10?'
p496
tp497
Rp498
ag3
(g7
S'Z\xfd\x11?'
p499
tp500
Rp501
ag3
(g7
S'\x86\x85\x11?'
p502
tp503
Rp504
ag3
(g7
S'e\x11\x0f?'
p505
tp506
Rp507
ag3
(g7
S'\x90\x1f\x11?'
p508
tp509
Rp510
ag3
(g7
S'\x96s\n?'
p511
tp512
Rp513
ag3
(g7
S'rm\r?'
p514
tp515
Rp516
ag3
(g7
S'\x84\xad\x0e?'
p517
tp518
Rp519
ag3
(g7
S'\xfc\x8a\r?'
p520
tp521
Rp522
ag3
(g7
S'"0\x0b?'
p523
tp524
Rp525
ag3
(g7
S'\x04\x1e\t?'
p526
tp527
Rp528
ag3
(g7
S'\x89\x8e\r?'
p529
tp530
Rp531
ag3
(g7
S'\xbe\x06\x0b?'
p532
tp533
Rp534
ag3
(g7
S'\x03\xe8\x06?'
p535
tp536
Rp537
ag3
(g7
S'\x01\xee\x04?'
p538
tp539
Rp540
ag3
(g7
S'o)\x06?'
p541
tp542
Rp543
ag3
(g7
S'W\x8a\x03?'
p544
tp545
Rp546
ag3
(g7
S'\xc9W\x04?'
p547
tp548
Rp549
ag3
(g7
S'O\x8e\x07?'
p550
tp551
Rp552
ag3
(g7
S'\x11v\x04?'
p553
tp554
Rp555
ag3
(g7
S'\x8a\x8c\x03?'
p556
tp557
Rp558
ag3
(g7
S'v\x89\x06?'
p559
tp560
Rp561
ag3
(g7
S'\x9d\xad\x07?'
p562
tp563
Rp564
ag3
(g7
S'\xc8A\x04?'
p565
tp566
Rp567
ag3
(g7
S'\xf4\x8b\n?'
p568
tp569
Rp570
ag3
(g7
S'~\x9b\x04?'
p571
tp572
Rp573
ag3
(g7
S'c\xa2\x06?'
p574
tp575
Rp576
ag3
(g7
S'$\xbf\x02?'
p577
tp578
Rp579
ag3
(g7
S'\xbd\x00\x06?'
p580
tp581
Rp582
ag3
(g7
S'W\x91\x00?'
p583
tp584
Rp585
ag3
(g7
S'\x90i\x01?'
p586
tp587
Rp588
ag3
(g7
S'n1\xfd>'
p589
tp590
Rp591
ag3
(g7
S'\xb8J\x00?'
p592
tp593
Rp594
ag3
(g7
S'Z]\x02?'
p595
tp596
Rp597
ag3
(g7
S'\xfd\x8f\x04?'
p598
tp599
Rp600
ag3
(g7
S'\xfa\xcc\x08?'
p601
tp602
Rp603
ag3
(g7
S'\xf8)\x01?'
p604
tp605
Rp606
ag3
(g7
S'\xdb\x1f\x02?'
p607
tp608
Rp609
ag3
(g7
S'\xc2\x86\x01?'
p610
tp611
Rp612
ag3
(g7
S'F)\xfe>'
p613
tp614
Rp615
as.